target datalayout = "e-m:e-p270:32:32-p271:32:32-p272:64:64-i64:64-i128:128-f80:128-n8:16:32:64-S128"
target triple = "x86_64-pc-linux-gnu"

%"class.gmx::FileIOXdrSerializer" = type { %"class.gmx::ISerializer", ptr }
%"class.gmx::ISerializer" = type { ptr }
%struct.t_fileio = type { ptr, i8, i8, i8, %"class.std::filesystem::__cxx11::path", ptr, i32, i32, ptr, ptr, %struct.tMPI_Lock }
%"class.std::filesystem::__cxx11::path" = type { %"class.std::__cxx11::basic_string", %"struct.std::filesystem::__cxx11::path::_List" }
%"class.std::__cxx11::basic_string" = type { %"struct.std::__cxx11::basic_string<char>::_Alloc_hider", i64, %union.anon }
%"struct.std::__cxx11::basic_string<char>::_Alloc_hider" = type { ptr }
%union.anon = type { i64, [8 x i8] }
%"struct.std::filesystem::__cxx11::path::_List" = type { %"class.std::unique_ptr" }
%"class.std::unique_ptr" = type { %"struct.std::__uniq_ptr_data" }
%"struct.std::__uniq_ptr_data" = type { %"class.std::__uniq_ptr_impl" }
%"class.std::__uniq_ptr_impl" = type { %"class.std::tuple" }
%"class.std::tuple" = type { %"struct.std::_Tuple_impl" }
%"struct.std::_Tuple_impl" = type { %"struct.std::_Head_base.1" }
%"struct.std::_Head_base.1" = type { ptr }
%struct.tMPI_Lock = type { %struct.tMPI_Spinlock }
%struct.tMPI_Spinlock = type { i32, [60 x i8] }

@.str.2 = private unnamed_addr constant [127 x i8] c"generated/home/dtcxzyw/WorkSpace/Projects/compilers/llvm-opt-benchmark/bench/gromacs/gromacs/src/gromacs/fileio/gmxfio_xdr.cpp\00", align 1
@.str.34 = private unnamed_addr constant [4 x i8] c"buf\00", align 1

; Function Attrs: mustprogress nounwind uwtable
define linkonce_odr noundef i64 @_ZNSt11char_traitsIcE6lengthEPKc(ptr noundef %0) #0 comdat align 2 {
  %2 = alloca ptr, align 8
  store ptr %0, ptr %2, align 8, !tbaa !41
  %3 = load ptr, ptr %2, align 8, !tbaa !41
  %4 = call i64 @strlen(ptr noundef %3) #15
  ret i64 %4
}

; Function Attrs: mustprogress nounwind uwtable
define available_externally noundef i64 @_ZNKSt7__cxx1112basic_stringIcSt11char_traitsIcESaIcEE4sizeEv(ptr noundef nonnull align 8 dereferenceable(32) %0) #0 align 2 {
  %2 = alloca ptr, align 8
  store ptr %0, ptr %2, align 8, !tbaa !52
  %3 = load ptr, ptr %2, align 8
  %4 = getelementptr inbounds nuw %"class.std::__cxx11::basic_string", ptr %3, i32 0, i32 1
  %5 = load i64, ptr %4, align 8, !tbaa !110
  ret i64 %5
}

; Function Attrs: mustprogress uwtable
define available_externally noundef nonnull align 8 dereferenceable(32) ptr @_ZNSt7__cxx1112basic_stringIcSt11char_traitsIcESaIcEE6assignEPKc(ptr noundef nonnull align 8 dereferenceable(32) %0, ptr noundef %1) #2 align 2 {
  %3 = alloca ptr, align 8
  %4 = alloca ptr, align 8
  store ptr %0, ptr %3, align 8, !tbaa !52
  store ptr %1, ptr %4, align 8, !tbaa !41
  %5 = load ptr, ptr %3, align 8
  %6 = call noundef i64 @_ZNKSt7__cxx1112basic_stringIcSt11char_traitsIcESaIcEE4sizeEv(ptr noundef nonnull align 8 dereferenceable(32) %5) #15
  %7 = load ptr, ptr %4, align 8, !tbaa !41
  %8 = load ptr, ptr %4, align 8, !tbaa !41
  %9 = call noundef i64 @_ZNSt11char_traitsIcE6lengthEPKc(ptr noundef %8)
  %10 = call noundef nonnull align 8 dereferenceable(32) ptr @_ZNSt7__cxx1112basic_stringIcSt11char_traitsIcESaIcEE10_M_replaceEmmPKcm(ptr noundef nonnull align 8 dereferenceable(32) %5, i64 noundef 0, i64 noundef %6, ptr noundef %7, i64 noundef %9)
  ret ptr %10
}

; Function Attrs: mustprogress nounwind uwtable
define available_externally noundef ptr @_ZNKSt7__cxx1112basic_stringIcSt11char_traitsIcESaIcEE7_M_dataEv(ptr noundef nonnull align 8 dereferenceable(32) %0) #0 align 2 {
  %2 = alloca ptr, align 8
  store ptr %0, ptr %2, align 8, !tbaa !52
  %3 = load ptr, ptr %2, align 8
  %4 = getelementptr inbounds nuw %"class.std::__cxx11::basic_string", ptr %3, i32 0, i32 0
  %5 = getelementptr inbounds nuw %"struct.std::__cxx11::basic_string<char>::_Alloc_hider", ptr %4, i32 0, i32 0
  %6 = load ptr, ptr %5, align 8, !tbaa !107
  ret ptr %6
}

; Function Attrs: mustprogress uwtable
define available_externally noundef nonnull align 8 dereferenceable(32) ptr @_ZNSt7__cxx1112basic_stringIcSt11char_traitsIcESaIcEEaSEPKc(ptr noundef nonnull align 8 dereferenceable(32) %0, ptr noundef %1) #2 align 2 {
  %3 = alloca ptr, align 8
  %4 = alloca ptr, align 8
  store ptr %0, ptr %3, align 8, !tbaa !52
  store ptr %1, ptr %4, align 8, !tbaa !41
  %5 = load ptr, ptr %3, align 8
  %6 = load ptr, ptr %4, align 8, !tbaa !41
  %7 = call noundef nonnull align 8 dereferenceable(32) ptr @_ZNSt7__cxx1112basic_stringIcSt11char_traitsIcESaIcEE6assignEPKc(ptr noundef nonnull align 8 dereferenceable(32) %5, ptr noundef %6)
  ret ptr %7
}

; Function Attrs: mustprogress uwtable
define noundef zeroext i1 @_Z18gmx_fio_doe_stringP8t_fileioPcPKcS3_i(ptr noundef %0, ptr noundef %1, ptr noundef %2, ptr noundef %3, i32 noundef %4) #2 {
  %6 = alloca ptr, align 8
  %7 = alloca ptr, align 8
  %8 = alloca ptr, align 8
  %9 = alloca ptr, align 8
  %10 = alloca i32, align 4
  %11 = alloca i8, align 1
  store ptr %0, ptr %6, align 8, !tbaa !57
  store ptr %1, ptr %7, align 8, !tbaa !41
  store ptr %2, ptr %8, align 8, !tbaa !41
  store ptr %3, ptr %9, align 8, !tbaa !41
  store i32 %4, ptr %10, align 4, !tbaa !56
  call void @llvm.lifetime.start.p0(i64 1, ptr %11) #15
  %12 = load ptr, ptr %6, align 8, !tbaa !57
  call void @_Z12gmx_fio_lockP8t_fileio(ptr noundef %12)
  %13 = load ptr, ptr %6, align 8, !tbaa !57
  %14 = load ptr, ptr %7, align 8, !tbaa !41
  %15 = load ptr, ptr %8, align 8, !tbaa !41
  %16 = load ptr, ptr %9, align 8, !tbaa !41
  %17 = load i32, ptr %10, align 4, !tbaa !56
  %18 = call noundef zeroext i1 @_ZL6do_xdrP8t_fileioPvm15InputOutputTypePKcS4_i(ptr noundef %13, ptr noundef %14, i64 noundef 1, i32 noundef 14, ptr noundef %15, ptr noundef %16, i32 noundef %17)
  %19 = zext i1 %18 to i8
  store i8 %19, ptr %11, align 1, !tbaa !58
  %20 = load ptr, ptr %6, align 8, !tbaa !57
  call void @_Z14gmx_fio_unlockP8t_fileio(ptr noundef %20)
  %21 = load i8, ptr %11, align 1, !tbaa !58, !range !37, !noundef !38
  %22 = trunc i8 %21 to i1
  call void @llvm.lifetime.end.p0(i64 1, ptr %11) #15
  ret i1 %22
}

; Function Attrs: mustprogress nounwind uwtable
define available_externally noundef ptr @_ZNKSt7__cxx1112basic_stringIcSt11char_traitsIcESaIcEE5c_strEv(ptr noundef nonnull align 8 dereferenceable(32) %0) #0 align 2 {
  %2 = alloca ptr, align 8
  store ptr %0, ptr %2, align 8, !tbaa !52
  %3 = load ptr, ptr %2, align 8
  %4 = call noundef ptr @_ZNKSt7__cxx1112basic_stringIcSt11char_traitsIcESaIcEE7_M_dataEv(ptr noundef nonnull align 8 dereferenceable(32) %3)
  ret ptr %4
}

; Function Attrs: mustprogress uwtable
define void @_ZN3gmx19FileIOXdrSerializer8doStringEPNSt7__cxx1112basic_stringIcSt11char_traitsIcESaIcEEE(ptr noundef nonnull align 8 dereferenceable(16) %0, ptr noundef %1) unnamed_addr #2 align 2 {
  %3 = alloca ptr, align 8
  %4 = alloca ptr, align 8
  %5 = alloca [4096 x i8], align 16
  store ptr %0, ptr %3, align 8, !tbaa !9
  store ptr %1, ptr %4, align 8, !tbaa !52
  %6 = load ptr, ptr %3, align 8
  call void @llvm.lifetime.start.p0(i64 4096, ptr %5) #15
  %7 = getelementptr inbounds nuw %"class.gmx::FileIOXdrSerializer", ptr %6, i32 0, i32 1
  %8 = load ptr, ptr %7, align 8, !tbaa !11
  %9 = getelementptr inbounds nuw %struct.t_fileio, ptr %8, i32 0, i32 1
  %10 = load i8, ptr %9, align 8, !tbaa !15, !range !37, !noundef !38
  %11 = trunc i8 %10 to i1
  br i1 %11, label %18, label %12

12:                                               ; preds = %2
  %13 = getelementptr inbounds [4096 x i8], ptr %5, i64 0, i64 0
  %14 = load ptr, ptr %4, align 8, !tbaa !52
  %15 = call noundef ptr @_ZNKSt7__cxx1112basic_stringIcSt11char_traitsIcESaIcEE5c_strEv(ptr noundef nonnull align 8 dereferenceable(32) %14) #15
  %16 = call ptr @strncpy(ptr noundef %13, ptr noundef %15, i64 noundef 4096) #15
  %17 = getelementptr inbounds [4096 x i8], ptr %5, i64 0, i64 4095
  store i8 0, ptr %17, align 1, !tbaa !54
  br label %18

18:                                               ; preds = %12, %2
  %19 = getelementptr inbounds nuw %"class.gmx::FileIOXdrSerializer", ptr %6, i32 0, i32 1
  %20 = load ptr, ptr %19, align 8, !tbaa !11
  %21 = getelementptr inbounds [4096 x i8], ptr %5, i64 0, i64 0
  %22 = call noundef zeroext i1 @_Z18gmx_fio_doe_stringP8t_fileioPcPKcS3_i(ptr noundef %20, ptr noundef %21, ptr noundef @.str.34, ptr noundef @.str.2, i32 noundef 893)
  %23 = getelementptr inbounds nuw %"class.gmx::FileIOXdrSerializer", ptr %6, i32 0, i32 1
  %24 = load ptr, ptr %23, align 8, !tbaa !11
  %25 = getelementptr inbounds nuw %struct.t_fileio, ptr %24, i32 0, i32 1
  %26 = load i8, ptr %25, align 8, !tbaa !15, !range !37, !noundef !38
  %27 = trunc i8 %26 to i1
  br i1 %27, label %28, label %32

28:                                               ; preds = %18
  %29 = getelementptr inbounds [4096 x i8], ptr %5, i64 0, i64 0
  %30 = load ptr, ptr %4, align 8, !tbaa !52
  %31 = call noundef nonnull align 8 dereferenceable(32) ptr @_ZNSt7__cxx1112basic_stringIcSt11char_traitsIcESaIcEEaSEPKc(ptr noundef nonnull align 8 dereferenceable(32) %30, ptr noundef %29)
  br label %32

32:                                               ; preds = %28, %18
  call void @llvm.lifetime.end.p0(i64 4096, ptr %5) #15
  ret void
}