; Function Attrs: mustprogress uwtable
define void @_ZN3gmx19FileIOXdrSerializer8doStringEPNSt7__cxx1112basic_stringIcSt11char_traitsIcESaIcEEE(ptr noundef nonnull readonly align 8 captures(none) dereferenceable(16) %0, ptr noundef %1) unnamed_addr #3 align 2 {
  %3 = alloca [4096 x i8], align 16
  call void @llvm.lifetime.start.p0(i64 4096, ptr nonnull %3) #16
  %4 = getelementptr inbounds nuw i8, ptr %0, i64 8
  %5 = load ptr, ptr %4, align 8, !tbaa !4
  %6 = getelementptr inbounds nuw i8, ptr %5, i64 8
  %7 = load i8, ptr %6, align 8, !tbaa !11, !range !33, !noundef !34
  %8 = trunc nuw i8 %7 to i1
  br i1 %8, label %13, label %9

9:                                                ; preds = %2
  %10 = load ptr, ptr %1, align 8, !tbaa !45
  %11 = call ptr @strncpy(ptr noundef nonnull dereferenceable(1) %3, ptr noundef nonnull dereferenceable(1) %10, i64 noundef 4096) #16
  %12 = getelementptr inbounds nuw i8, ptr %3, i64 4095
  store i8 0, ptr %12, align 1, !tbaa !36
  br label %13

13:                                               ; preds = %9, %2
  call void @_Z12gmx_fio_lockP8t_fileio(ptr noundef nonnull %5)
  %14 = call fastcc noundef zeroext i1 @_ZL6do_xdrP8t_fileioPvm15InputOutputTypePKcS4_i(ptr noundef nonnull %5, ptr noundef nonnull %3, i64 noundef 1, i32 noundef 14, ptr noundef nonnull @.str.34, ptr noundef nonnull @.str.2, i32 noundef 893)
  call void @_Z14gmx_fio_unlockP8t_fileio(ptr noundef nonnull %5)
  %15 = load ptr, ptr %4, align 8, !tbaa !4
  %16 = getelementptr inbounds nuw i8, ptr %15, i64 8
  %17 = load i8, ptr %16, align 8, !tbaa !11, !range !33, !noundef !34
  %18 = trunc nuw i8 %17 to i1
  br i1 %18, label %19, label %24

19:                                               ; preds = %13
  %20 = getelementptr inbounds nuw i8, ptr %1, i64 8
  %21 = load i64, ptr %20, align 8, !tbaa !46
  %22 = call noundef i64 @strlen(ptr noundef nonnull dereferenceable(1) %3) #16
  %23 = call noundef nonnull align 8 dereferenceable(32) ptr @_ZNSt7__cxx1112basic_stringIcSt11char_traitsIcESaIcEE10_M_replaceEmmPKcm(ptr noundef nonnull align 8 dereferenceable(32) %1, i64 noundef 0, i64 noundef %21, ptr noundef nonnull %3, i64 noundef %22)
  br label %24

24:                                               ; preds = %19, %13
  call void @llvm.lifetime.end.p0(i64 4096, ptr nonnull %3) #16
  ret void
}